; Function Attrs: mustprogress nounwind uwtable
define internal void @_ZN5ceres8internal12_GLOBAL__N_128GradientCheckingCostFunctionD2Ev(ptr noundef nonnull align 8 dereferenceable(136) %0) unnamed_addr #0 align 2 personality ptr @__gxx_personality_v0 {
  %2 = getelementptr inbounds i8, ptr %0, i64 96
  tail call void @_ZNSt7__cxx1112basic_stringIcSt11char_traitsIcESaIcEED1Ev(ptr noundef nonnull align 8 dereferenceable(32) %2) #17
  %3 = getelementptr inbounds i8, ptr %0, i64 48
  %4 = getelementptr inbounds i8, ptr %0, i64 80
  %5 = load ptr, ptr %4, align 8
  %.not.i.i = icmp eq ptr %5, null
  br i1 %.not.i.i, label %_ZNSt10unique_ptrIN5ceres12CostFunctionESt14default_deleteIS1_EED2Ev.exit.i, label %_ZNKSt14default_deleteIN5ceres12CostFunctionEEclEPS1_.exit.i.i

_ZNKSt14default_deleteIN5ceres12CostFunctionEEclEPS1_.exit.i.i: ; preds = %1
  %6 = load ptr, ptr %5, align 8
  %7 = getelementptr inbounds i8, ptr %6, i64 8
  %8 = load ptr, ptr %7, align 8
  tail call void %8(ptr noundef nonnull align 8 dereferenceable(36) %5) #17
  br label %_ZNSt10unique_ptrIN5ceres12CostFunctionESt14default_deleteIS1_EED2Ev.exit.i

_ZNSt10unique_ptrIN5ceres12CostFunctionESt14default_deleteIS1_EED2Ev.exit.i: ; preds = %_ZNKSt14default_deleteIN5ceres12CostFunctionEEclEPS1_.exit.i.i, %1
  store ptr null, ptr %4, align 8
  %9 = load ptr, ptr %3, align 8
  %.not.i.i.i.i = icmp eq ptr %9, null
  br i1 %.not.i.i.i.i, label %_ZN5ceres15GradientCheckerD2Ev.exit, label %10

10:                                               ; preds = %_ZNSt10unique_ptrIN5ceres12CostFunctionESt14default_deleteIS1_EED2Ev.exit.i
  tail call void @_ZdlPv(ptr noundef nonnull %9) #20
  br label %_ZN5ceres15GradientCheckerD2Ev.exit

_ZN5ceres15GradientCheckerD2Ev.exit:              ; preds = %_ZNSt10unique_ptrIN5ceres12CostFunctionESt14default_deleteIS1_EED2Ev.exit.i, %10
  tail call void @_ZN5ceres12CostFunctionD2Ev(ptr noundef nonnull align 8 dereferenceable(36) %0) #17
  ret void
}